target datalayout = "e-m:e-p270:32:32-p271:32:32-p272:64:64-i64:64-i128:128-f80:128-n8:16:32:64-S128"
target triple = "x86_64-pc-linux-gnu"

%"class.OpenImageIO::v3_1_0::basic_string_view" = type { ptr, i64 }
%"struct.OpenImageIO::v3_1_0::ROI" = type { i32, i32, i32, i32, i32, i32, i32, i32 }
%"class.OpenImageIO::v3_1_0::ImageBuf" = type { %"class.std::unique_ptr.60" }
%"class.std::unique_ptr.60" = type { %"struct.std::__uniq_ptr_data.61" }
%"struct.std::__uniq_ptr_data.61" = type { %"class.std::__uniq_ptr_impl.62" }
%"class.std::__uniq_ptr_impl.62" = type { %"class.std::tuple.63" }
%"class.std::tuple.63" = type { %"struct.std::_Tuple_impl.64" }
%"struct.std::_Tuple_impl.64" = type { %"struct.std::_Tuple_impl.65", %"struct.std::_Head_base.67" }
%"struct.std::_Tuple_impl.65" = type { %"struct.std::_Head_base.66" }
%"struct.std::_Head_base.66" = type { ptr }
%"struct.std::_Head_base.67" = type { ptr }

@.str.92 = private unnamed_addr constant [41 x i8] c"ImageBufAlgo::ocionamedtransform() error\00", align 1

; Function Attrs: mustprogress nounwind uwtable
define linkonce_odr hidden noundef i64 @_ZNK11OpenImageIO6v3_1_017basic_string_viewIcSt11char_traitsIcEE4sizeEv(ptr noundef nonnull align 8 dereferenceable(16) %0) #6 comdat align 2 {
  %2 = alloca ptr, align 8
  store ptr %0, ptr %2, align 8, !tbaa !10
  %3 = load ptr, ptr %2, align 8
  %4 = getelementptr inbounds nuw %"class.OpenImageIO::v3_1_0::basic_string_view", ptr %3, i32 0, i32 1
  %5 = load i64, ptr %4, align 8, !tbaa !17
  ret i64 %5
}

; Function Attrs: mustprogress nounwind uwtable
define linkonce_odr hidden noundef ptr @_ZNK11OpenImageIO6v3_1_017basic_string_viewIcSt11char_traitsIcEE4dataEv(ptr noundef nonnull align 8 dereferenceable(16) %0) #6 comdat align 2 {
  %2 = alloca ptr, align 8
  store ptr %0, ptr %2, align 8, !tbaa !10
  %3 = load ptr, ptr %2, align 8
  %4 = getelementptr inbounds nuw %"class.OpenImageIO::v3_1_0::basic_string_view", ptr %3, i32 0, i32 0
  %5 = load ptr, ptr %4, align 8, !tbaa !14
  ret ptr %5
}

; Function Attrs: mustprogress nounwind uwtable
define linkonce_odr hidden void @_ZN11OpenImageIO6v3_1_017basic_string_viewIcSt11char_traitsIcEEC2ERKS4_(ptr noundef nonnull align 8 dereferenceable(16) %0, ptr noundef nonnull align 8 dereferenceable(16) %1) unnamed_addr #6 comdat align 2 {
  %3 = alloca ptr, align 8
  %4 = alloca ptr, align 8
  store ptr %0, ptr %3, align 8, !tbaa !10
  store ptr %1, ptr %4, align 8, !tbaa !10
  %5 = load ptr, ptr %3, align 8
  %6 = getelementptr inbounds nuw %"class.OpenImageIO::v3_1_0::basic_string_view", ptr %5, i32 0, i32 0
  %7 = load ptr, ptr %4, align 8, !tbaa !10
  %8 = call noundef ptr @_ZNK11OpenImageIO6v3_1_017basic_string_viewIcSt11char_traitsIcEE4dataEv(ptr noundef nonnull align 8 dereferenceable(16) %7) #5
  store ptr %8, ptr %6, align 8, !tbaa !14
  %9 = getelementptr inbounds nuw %"class.OpenImageIO::v3_1_0::basic_string_view", ptr %5, i32 0, i32 1
  %10 = load ptr, ptr %4, align 8, !tbaa !10
  %11 = call noundef i64 @_ZNK11OpenImageIO6v3_1_017basic_string_viewIcSt11char_traitsIcEE4sizeEv(ptr noundef nonnull align 8 dereferenceable(16) %10) #5
  store i64 %11, ptr %9, align 8, !tbaa !17
  ret void
}

; Function Attrs: mustprogress uwtable
define void @_ZN11OpenImageIO6v3_1_012ImageBufAlgo18ocionamedtransformERKNS0_8ImageBufENS0_17basic_string_viewIcSt11char_traitsIcEEEbbS8_S8_PKNS0_11ColorConfigENS0_3ROIEi(ptr dead_on_unwind noalias writable sret(%"class.OpenImageIO::v3_1_0::ImageBuf") align 8 %0, ptr noundef nonnull align 8 dereferenceable(16) %1, ptr noundef %2, i1 noundef zeroext %3, i1 noundef zeroext %4, ptr noundef %5, ptr noundef %6, ptr noundef %7, ptr noundef byval(%"struct.OpenImageIO::v3_1_0::ROI") align 8 %8, i32 noundef %9) #7 personality ptr @__gxx_personality_v0 {
  %11 = alloca ptr, align 8
  %12 = alloca ptr, align 8
  %13 = alloca ptr, align 8
  %14 = alloca i8, align 1
  %15 = alloca i8, align 1
  %16 = alloca ptr, align 8
  %17 = alloca ptr, align 8
  %18 = alloca ptr, align 8
  %19 = alloca i32, align 4
  %20 = alloca i1, align 1
  %21 = alloca i8, align 1
  %22 = alloca %"class.OpenImageIO::v3_1_0::basic_string_view", align 8
  %23 = alloca ptr, align 8
  %24 = alloca i32, align 4
  %25 = alloca %"class.OpenImageIO::v3_1_0::basic_string_view", align 8
  %26 = alloca %"class.OpenImageIO::v3_1_0::basic_string_view", align 8
  %27 = alloca %"struct.OpenImageIO::v3_1_0::ROI", align 8
  store ptr %0, ptr %11, align 8
  store ptr %1, ptr %12, align 8, !tbaa !317
  store ptr %2, ptr %13, align 8, !tbaa !10
  %28 = zext i1 %3 to i8
  store i8 %28, ptr %14, align 1, !tbaa !8
  %29 = zext i1 %4 to i8
  store i8 %29, ptr %15, align 1, !tbaa !8
  store ptr %5, ptr %16, align 8, !tbaa !10
  store ptr %6, ptr %17, align 8, !tbaa !10
  store ptr %7, ptr %18, align 8, !tbaa !121
  store i32 %9, ptr %19, align 4, !tbaa !18
  store i1 false, ptr %20, align 1
  call void @_ZN11OpenImageIO6v3_1_08ImageBufC1Ev(ptr noundef nonnull align 8 dereferenceable(16) %0)
  call void @llvm.lifetime.start.p0(i64 1, ptr %21) #5
  %30 = load ptr, ptr %12, align 8, !tbaa !317
  invoke void @_ZN11OpenImageIO6v3_1_017basic_string_viewIcSt11char_traitsIcEEC2ERKS4_(ptr noundef nonnull align 8 dereferenceable(16) %22, ptr noundef nonnull align 8 dereferenceable(16) %2)
          to label %31 unwind label %50

31:                                               ; preds = %10
  %32 = load i8, ptr %14, align 1, !tbaa !8, !range !23, !noundef !24
  %33 = trunc i8 %32 to i1
  %34 = load i8, ptr %15, align 1, !tbaa !8, !range !23, !noundef !24
  %35 = trunc i8 %34 to i1
  invoke void @_ZN11OpenImageIO6v3_1_017basic_string_viewIcSt11char_traitsIcEEC2ERKS4_(ptr noundef nonnull align 8 dereferenceable(16) %25, ptr noundef nonnull align 8 dereferenceable(16) %5)
          to label %36 unwind label %50

36:                                               ; preds = %31
  invoke void @_ZN11OpenImageIO6v3_1_017basic_string_viewIcSt11char_traitsIcEEC2ERKS4_(ptr noundef nonnull align 8 dereferenceable(16) %26, ptr noundef nonnull align 8 dereferenceable(16) %6)
          to label %37 unwind label %50

37:                                               ; preds = %36
  %38 = load ptr, ptr %18, align 8, !tbaa !121
  call void @llvm.memcpy.p0.p0.i64(ptr align 4 %27, ptr align 8 %8, i64 32, i1 false), !tbaa.struct !319
  %39 = load i32, ptr %19, align 4, !tbaa !18
  %40 = invoke noundef zeroext i1 @_ZN11OpenImageIO6v3_1_012ImageBufAlgo18ocionamedtransformERNS0_8ImageBufERKS2_NS0_17basic_string_viewIcSt11char_traitsIcEEEbbS9_S9_PKNS0_11ColorConfigENS0_3ROIEi(ptr noundef nonnull align 8 dereferenceable(16) %0, ptr noundef nonnull align 8 dereferenceable(16) %30, ptr noundef %22, i1 noundef zeroext %33, i1 noundef zeroext %35, ptr noundef %25, ptr noundef %26, ptr noundef %38, ptr noundef byval(%"struct.OpenImageIO::v3_1_0::ROI") align 8 %27, i32 noundef %39)
          to label %41 unwind label %50

41:                                               ; preds = %37
  %42 = zext i1 %40 to i8
  store i8 %42, ptr %21, align 1, !tbaa !8
  %43 = load i8, ptr %21, align 1, !tbaa !8, !range !23, !noundef !24
  %44 = trunc i8 %43 to i1
  br i1 %44, label %54, label %45

45:                                               ; preds = %41
  %46 = invoke noundef zeroext i1 @_ZNK11OpenImageIO6v3_1_08ImageBuf9has_errorEv(ptr noundef nonnull align 8 dereferenceable(16) %0)
          to label %47 unwind label %50

47:                                               ; preds = %45
  br i1 %46, label %54, label %48

48:                                               ; preds = %47
  invoke void @_ZNK11OpenImageIO6v3_1_08ImageBuf8errorfmtIA41_cJEEEvRKT_DpOT0_(ptr noundef nonnull align 8 dereferenceable(16) %0, ptr noundef nonnull align 1 dereferenceable(41) @.str.92)
          to label %49 unwind label %50

49:                                               ; preds = %48
  br label %54

50:                                               ; preds = %48, %45, %37, %36, %31, %10
  %51 = landingpad { ptr, i32 }
          cleanup
  %52 = extractvalue { ptr, i32 } %51, 0
  store ptr %52, ptr %23, align 8
  %53 = extractvalue { ptr, i32 } %51, 1
  store i32 %53, ptr %24, align 4
  call void @llvm.lifetime.end.p0(i64 1, ptr %21) #5
  call void @_ZN11OpenImageIO6v3_1_08ImageBufD1Ev(ptr noundef nonnull align 8 dereferenceable(16) %0) #5
  br label %58

54:                                               ; preds = %49, %47, %41
  store i1 true, ptr %20, align 1
  call void @llvm.lifetime.end.p0(i64 1, ptr %21) #5
  %55 = load i1, ptr %20, align 1
  br i1 %55, label %57, label %56

56:                                               ; preds = %54
  call void @_ZN11OpenImageIO6v3_1_08ImageBufD1Ev(ptr noundef nonnull align 8 dereferenceable(16) %0) #5
  br label %57

57:                                               ; preds = %56, %54
  ret void

58:                                               ; preds = %50
  %59 = load ptr, ptr %23, align 8
  %60 = load i32, ptr %24, align 4
  %61 = insertvalue { ptr, i32 } poison, ptr %59, 0
  %62 = insertvalue { ptr, i32 } %61, i32 %60, 1
  resume { ptr, i32 } %62
}