; Function Attrs: mustprogress uwtable
define void @_ZN11OpenImageIO6v3_1_012ImageBufAlgo18ocionamedtransformERKNS0_8ImageBufENS0_17basic_string_viewIcSt11char_traitsIcEEEbbS8_S8_PKNS0_11ColorConfigENS0_3ROIEi(ptr dead_on_unwind noalias nonnull writable sret(%"class.OpenImageIO::v3_1_0::ImageBuf") align 8 %0, ptr noundef nonnull align 8 dereferenceable(16) %1, ptr noundef readonly captures(none) %2, i1 noundef zeroext %3, i1 noundef zeroext %4, ptr noundef readonly captures(none) %5, ptr noundef readonly captures(none) %6, ptr noundef %7, ptr noundef readonly byval(%"struct.OpenImageIO::v3_1_0::ROI") align 8 captures(none) %8, i32 noundef %9) local_unnamed_addr #5 personality ptr @__gxx_personality_v0 {
  %11 = alloca %"class.OpenImageIO::v3_1_0::basic_string_view", align 8
  %12 = alloca %"class.OpenImageIO::v3_1_0::basic_string_view", align 8
  %13 = alloca %"class.OpenImageIO::v3_1_0::basic_string_view", align 8
  tail call void @_ZN11OpenImageIO6v3_1_08ImageBufC1Ev(ptr noundef nonnull align 8 dereferenceable(16) %0)
  %14 = load ptr, ptr %2, align 8, !tbaa !4
  store ptr %14, ptr %11, align 8, !tbaa !4
  %15 = getelementptr inbounds nuw i8, ptr %11, i64 8
  %16 = getelementptr inbounds nuw i8, ptr %2, i64 8
  %17 = load i64, ptr %16, align 8, !tbaa !11
  store i64 %17, ptr %15, align 8, !tbaa !11
  %18 = load ptr, ptr %5, align 8, !tbaa !4
  store ptr %18, ptr %12, align 8, !tbaa !4
  %19 = getelementptr inbounds nuw i8, ptr %12, i64 8
  %20 = getelementptr inbounds nuw i8, ptr %5, i64 8
  %21 = load i64, ptr %20, align 8, !tbaa !11
  store i64 %21, ptr %19, align 8, !tbaa !11
  %22 = load ptr, ptr %6, align 8, !tbaa !4
  store ptr %22, ptr %13, align 8, !tbaa !4
  %23 = getelementptr inbounds nuw i8, ptr %13, i64 8
  %24 = getelementptr inbounds nuw i8, ptr %6, i64 8
  %25 = load i64, ptr %24, align 8, !tbaa !11
  store i64 %25, ptr %23, align 8, !tbaa !11
  %26 = invoke noundef zeroext i1 @_ZN11OpenImageIO6v3_1_012ImageBufAlgo18ocionamedtransformERNS0_8ImageBufERKS2_NS0_17basic_string_viewIcSt11char_traitsIcEEEbbS9_S9_PKNS0_11ColorConfigENS0_3ROIEi(ptr noundef nonnull align 8 dereferenceable(16) %0, ptr noundef nonnull align 8 dereferenceable(16) %1, ptr noundef nonnull %11, i1 noundef zeroext %3, i1 noundef zeroext %4, ptr noundef nonnull %12, ptr noundef nonnull %13, ptr noundef %7, ptr noundef nonnull byval(%"struct.OpenImageIO::v3_1_0::ROI") align 8 %8, i32 noundef %9)
          to label %27 unwind label %32

27:                                               ; preds = %10
  br i1 %26, label %34, label %28

28:                                               ; preds = %27
  %29 = invoke noundef zeroext i1 @_ZNK11OpenImageIO6v3_1_08ImageBuf9has_errorEv(ptr noundef nonnull align 8 dereferenceable(16) %0)
          to label %30 unwind label %32

30:                                               ; preds = %28
  br i1 %29, label %34, label %31

31:                                               ; preds = %30
  invoke void @_ZNK11OpenImageIO6v3_1_08ImageBuf8errorfmtIA41_cJEEEvRKT_DpOT0_(ptr noundef nonnull align 8 dereferenceable(16) %0, ptr noundef nonnull align 1 dereferenceable(41) @.str.92)
          to label %34 unwind label %32

32:                                               ; preds = %31, %28, %10
  %33 = landingpad { ptr, i32 }
          cleanup
  tail call void @_ZN11OpenImageIO6v3_1_08ImageBufD1Ev(ptr noundef nonnull align 8 dereferenceable(16) %0) #34
  resume { ptr, i32 } %33

34:                                               ; preds = %27, %30, %31
  ret void
}